; Function Attrs: nounwind uwtable
define i32 @pqGetlineAsync3(ptr noundef %0, ptr noundef writeonly captures(none) %1, i32 noundef %2) local_unnamed_addr #0 {
  %4 = getelementptr inbounds nuw i8, ptr %0, i64 420
  %5 = load i32, ptr %4, align 4
  %.off = add i32 %5, -5
  %switch = icmp ult i32 %.off, 2
  br i1 %switch, label %6, label %32

6:                                                ; preds = %3
  %7 = tail call fastcc i32 @getCopyDataMessage(ptr noundef nonnull %0)
  %8 = icmp slt i32 %7, 0
  br i1 %8, label %32, label %9

9:                                                ; preds = %6
  %10 = icmp eq i32 %7, 0
  br i1 %10, label %32, label %11

11:                                               ; preds = %9
  %12 = getelementptr inbounds nuw i8, ptr %0, i64 452
  %13 = load i32, ptr %12, align 4
  %14 = getelementptr inbounds nuw i8, ptr %0, i64 1016
  %15 = load i32, ptr %14, align 8
  %16 = add i32 %15, %13
  store i32 %16, ptr %14, align 8
  %17 = add nsw i32 %7, -4
  %18 = sub i32 %17, %13
  %.not32 = icmp sgt i32 %18, %2
  %19 = getelementptr inbounds nuw i8, ptr %0, i64 1000
  %20 = load ptr, ptr %19, align 8
  %21 = sext i32 %16 to i64
  %22 = getelementptr inbounds i8, ptr %20, i64 %21
  br i1 %.not32, label %28, label %23

23:                                               ; preds = %11
  %24 = sext i32 %18 to i64
  tail call void @llvm.memcpy.p0.p0.i64(ptr align 1 %1, ptr align 1 %22, i64 %24, i1 false)
  %25 = load i32, ptr %14, align 8
  %26 = add i32 %25, %18
  %27 = getelementptr inbounds nuw i8, ptr %0, i64 1012
  store i32 %26, ptr %27, align 4
  br label %.sink.split

28:                                               ; preds = %11
  %29 = sext i32 %2 to i64
  tail call void @llvm.memcpy.p0.p0.i64(ptr align 1 %1, ptr align 1 %22, i64 %29, i1 false)
  %30 = load i32, ptr %12, align 4
  %31 = add i32 %30, %2
  br label %.sink.split

.sink.split:                                      ; preds = %23, %28
  %.sink = phi i32 [ %31, %28 ], [ 0, %23 ]
  %.0.ph = phi i32 [ %2, %28 ], [ %18, %23 ]
  store i32 %.sink, ptr %12, align 4
  br label %32

32:                                               ; preds = %.sink.split, %3, %9, %6
  %.0 = phi i32 [ -1, %3 ], [ -1, %6 ], [ 0, %9 ], [ %.0.ph, %.sink.split ]
  ret i32 %.0
}